target datalayout = "e-m:e-p270:32:32-p271:32:32-p272:64:64-i64:64-i128:128-f80:128-n8:16:32:64-S128"
target triple = "x86_64-pc-linux-gnu"

@.str.1 = private unnamed_addr constant [12 x i8] c"namespace.c\00", align 1
@myTempNamespace = internal global i32 0, align 4
@.str.7 = private unnamed_addr constant [8 x i8] c"pg_temp\00", align 1
@object_access_hook = external global ptr, align 8
@.str.22 = private unnamed_addr constant [27 x i8] c"schema \22%s\22 does not exist\00", align 1
@__func__.get_namespace_oid = private unnamed_addr constant [18 x i8] c"get_namespace_oid\00", align 1

; Function Attrs: inlinehint nounwind uwtable
define internal i64 @PointerGetDatum(ptr noundef %0) #7 {
  %2 = alloca ptr, align 8
  store ptr %0, ptr %2, align 8
  %3 = load ptr, ptr %2, align 8
  %4 = ptrtoint ptr %3 to i64
  ret i64 %4
}

; Function Attrs: inlinehint nounwind uwtable
define internal i64 @CStringGetDatum(ptr noundef %0) #7 {
  %2 = alloca ptr, align 8
  store ptr %0, ptr %2, align 8
  %3 = load ptr, ptr %2, align 8
  %4 = call i64 @PointerGetDatum(ptr noundef %3)
  ret i64 %4
}

; Function Attrs: nounwind uwtable
define dso_local i32 @get_namespace_oid(ptr noundef %0, i1 noundef zeroext %1) #0 {
  %3 = alloca ptr, align 8
  %4 = alloca i8, align 1
  %5 = alloca i32, align 4
  store ptr %0, ptr %3, align 8
  %6 = zext i1 %1 to i8
  store i8 %6, ptr %4, align 1
  call void @llvm.lifetime.start.p0(i64 4, ptr %5) #14
  %7 = load ptr, ptr %3, align 8
  %8 = call i64 @CStringGetDatum(ptr noundef %7)
  %9 = call i32 @GetSysCacheOid(i32 noundef 37, i16 noundef signext 1, i64 noundef %8, i64 noundef 0, i64 noundef 0, i64 noundef 0)
  store i32 %9, ptr %5, align 4
  %10 = load i32, ptr %5, align 4
  %11 = icmp ne i32 %10, 0
  br i1 %11, label %28, label %12

12:                                               ; preds = %2
  %13 = load i8, ptr %4, align 1, !range !4, !noundef !5
  %14 = trunc i8 %13 to i1
  br i1 %14, label %28, label %15

15:                                               ; preds = %12
  br label %16

16:                                               ; preds = %15
  br i1 true, label %17, label %19

17:                                               ; preds = %16
  %18 = call zeroext i1 @errstart_cold(i32 noundef 21, ptr noundef null) #16
  br i1 %18, label %21, label %25

19:                                               ; preds = %16
  %20 = call zeroext i1 @errstart(i32 noundef 21, ptr noundef null)
  br i1 %20, label %21, label %25

21:                                               ; preds = %19, %17
  %22 = call i32 @errcode(i32 noundef 1411)
  %23 = load ptr, ptr %3, align 8
  %24 = call i32 (ptr, ...) @errmsg(ptr noundef @.str.22, ptr noundef %23)
  call void @errfinish(ptr noundef @.str.1, i32 noundef 3544, ptr noundef @__func__.get_namespace_oid)
  br label %25

25:                                               ; preds = %21, %19, %17
  unreachable

26:                                               ; No predecessors!
  br label %27

27:                                               ; preds = %26
  br label %28

28:                                               ; preds = %27, %12, %2
  %29 = load i32, ptr %5, align 4
  call void @llvm.lifetime.end.p0(i64 4, ptr %5) #14
  ret i32 %29
}

; Function Attrs: nounwind uwtable
define dso_local i32 @LookupExplicitNamespace(ptr noundef %0, i1 noundef zeroext %1) #0 {
  %3 = alloca i32, align 4
  %4 = alloca ptr, align 8
  %5 = alloca i8, align 1
  %6 = alloca i32, align 4
  %7 = alloca i32, align 4
  %8 = alloca i32, align 4
  store ptr %0, ptr %4, align 8
  %9 = zext i1 %1 to i8
  store i8 %9, ptr %5, align 1
  call void @llvm.lifetime.start.p0(i64 4, ptr %6) #14
  call void @llvm.lifetime.start.p0(i64 4, ptr %7) #14
  %10 = load ptr, ptr %4, align 8
  %11 = call i32 @strcmp(ptr noundef %10, ptr noundef @.str.7) #15
  %12 = icmp eq i32 %11, 0
  br i1 %12, label %13, label %19

13:                                               ; preds = %2
  %14 = load i32, ptr @myTempNamespace, align 4
  %15 = icmp ne i32 %14, 0
  br i1 %15, label %16, label %18

16:                                               ; preds = %13
  %17 = load i32, ptr @myTempNamespace, align 4
  store i32 %17, ptr %3, align 4
  store i32 1, ptr %8, align 4
  br label %48

18:                                               ; preds = %13
  br label %19

19:                                               ; preds = %18, %2
  %20 = load ptr, ptr %4, align 8
  %21 = load i8, ptr %5, align 1, !range !4, !noundef !5
  %22 = trunc i8 %21 to i1
  %23 = call i32 @get_namespace_oid(ptr noundef %20, i1 noundef zeroext %22)
  store i32 %23, ptr %6, align 4
  %24 = load i8, ptr %5, align 1, !range !4, !noundef !5
  %25 = trunc i8 %24 to i1
  br i1 %25, label %26, label %30

26:                                               ; preds = %19
  %27 = load i32, ptr %6, align 4
  %28 = icmp ne i32 %27, 0
  br i1 %28, label %30, label %29

29:                                               ; preds = %26
  store i32 0, ptr %3, align 4
  store i32 1, ptr %8, align 4
  br label %48

30:                                               ; preds = %26, %19
  %31 = load i32, ptr %6, align 4
  %32 = call i32 @GetUserId()
  %33 = call i32 @object_aclcheck(i32 noundef 2615, i32 noundef %31, i32 noundef %32, i64 noundef 256)
  store i32 %33, ptr %7, align 4
  %34 = load i32, ptr %7, align 4
  %35 = icmp ne i32 %34, 0
  br i1 %35, label %36, label %39

36:                                               ; preds = %30
  %37 = load i32, ptr %7, align 4
  %38 = load ptr, ptr %4, align 8
  call void @aclcheck_error(i32 noundef %37, i32 noundef 36, ptr noundef %38)
  br label %39

39:                                               ; preds = %36, %30
  %40 = load ptr, ptr @object_access_hook, align 8
  %41 = icmp ne ptr %40, null
  br i1 %41, label %43, label %42

42:                                               ; preds = %39
  br label %46

43:                                               ; preds = %39
  %44 = load i32, ptr %6, align 4
  %45 = call zeroext i1 @RunNamespaceSearchHook(i32 noundef %44, i1 noundef zeroext true)
  br label %46

46:                                               ; preds = %43, %42
  %47 = load i32, ptr %6, align 4
  store i32 %47, ptr %3, align 4
  store i32 1, ptr %8, align 4
  br label %48

48:                                               ; preds = %46, %29, %16
  call void @llvm.lifetime.end.p0(i64 4, ptr %7) #14
  call void @llvm.lifetime.end.p0(i64 4, ptr %6) #14
  %49 = load i32, ptr %3, align 4
  ret i32 %49
}