; Function Attrs: nounwind uwtable
define dso_local i32 @LookupExplicitNamespace(ptr noundef %0, i1 noundef zeroext %1) local_unnamed_addr #0 {
  %3 = tail call i32 @strcmp(ptr noundef nonnull dereferenceable(1) %0, ptr noundef nonnull dereferenceable(8) @.str.7) #20
  %4 = icmp eq i32 %3, 0
  %5 = load i32, ptr @myTempNamespace, align 4
  %6 = icmp ne i32 %5, 0
  %or.cond3 = select i1 %4, i1 %6, i1 false
  br i1 %or.cond3, label %23, label %7

7:                                                ; preds = %2
  %8 = ptrtoint ptr %0 to i64
  %9 = tail call i32 @GetSysCacheOid(i32 noundef 37, i16 noundef signext 1, i64 noundef %8, i64 noundef 0, i64 noundef 0, i64 noundef 0) #19
  %.not.i = icmp ne i32 %9, 0
  %brmerge.i = or i1 %1, %.not.i
  br i1 %brmerge.i, label %get_namespace_oid.exit, label %10

10:                                               ; preds = %7
  %11 = tail call zeroext i1 @errstart_cold(i32 noundef 21, ptr noundef null) #21
  tail call void @llvm.assume(i1 %11)
  %12 = tail call i32 @errcode(i32 noundef 1411) #19
  %13 = tail call i32 (ptr, ...) @errmsg(ptr noundef nonnull @.str.22, ptr noundef nonnull %0) #19
  tail call void @errfinish(ptr noundef nonnull @.str.1, i32 noundef 3544, ptr noundef nonnull @__func__.get_namespace_oid) #19
  unreachable

get_namespace_oid.exit:                           ; preds = %7
  %14 = icmp eq i32 %9, 0
  %or.cond.not = and i1 %1, %14
  br i1 %or.cond.not, label %23, label %15

15:                                               ; preds = %get_namespace_oid.exit
  %16 = tail call i32 @GetUserId() #19
  %17 = tail call i32 @object_aclcheck(i32 noundef 2615, i32 noundef %9, i32 noundef %16, i64 noundef 256) #19
  %.not = icmp eq i32 %17, 0
  br i1 %.not, label %19, label %18

18:                                               ; preds = %15
  tail call void @aclcheck_error(i32 noundef %17, i32 noundef 36, ptr noundef nonnull %0) #19
  br label %19

19:                                               ; preds = %18, %15
  %20 = load ptr, ptr @object_access_hook, align 8
  %.not17 = icmp eq ptr %20, null
  br i1 %.not17, label %23, label %21

21:                                               ; preds = %19
  %22 = tail call zeroext i1 @RunNamespaceSearchHook(i32 noundef %9, i1 noundef zeroext true) #19
  br label %23

23:                                               ; preds = %21, %19, %get_namespace_oid.exit, %2
  %.0 = phi i32 [ %5, %2 ], [ 0, %get_namespace_oid.exit ], [ %9, %19 ], [ %9, %21 ]
  ret i32 %.0
}